; Function Attrs: nofree nounwind uwtable
define noalias noundef ptr @Abc_NtkFindDcLatches(ptr noundef readonly captures(none) %0) local_unnamed_addr #3 {
  %2 = getelementptr i8, ptr %0, i64 128
  %.val15 = load i32, ptr %2, align 8
  %3 = tail call noalias dereferenceable_or_null(16) ptr @malloc(i64 noundef 16) #18
  %4 = add i32 %.val15, -1
  %or.cond.i.i = icmp ult i32 %4, 15
  %spec.store.select.i.i = select i1 %or.cond.i.i, i32 16, i32 %.val15
  %5 = getelementptr inbounds nuw i8, ptr %3, i64 4
  store i32 %spec.store.select.i.i, ptr %3, align 8
  %.not.i.i = icmp eq i32 %spec.store.select.i.i, 0
  br i1 %.not.i.i, label %Vec_IntAlloc.exit.thread.i, label %Vec_IntAlloc.exit.i

Vec_IntAlloc.exit.thread.i:                       ; preds = %1
  %6 = getelementptr inbounds nuw i8, ptr %3, i64 8
  store ptr null, ptr %6, align 8
  store i32 %.val15, ptr %5, align 4
  br label %Vec_IntStart.exit

Vec_IntAlloc.exit.i:                              ; preds = %1
  %7 = sext i32 %spec.store.select.i.i to i64
  %8 = shl nsw i64 %7, 2
  %9 = tail call noalias ptr @malloc(i64 noundef %8) #18
  %10 = getelementptr inbounds nuw i8, ptr %3, i64 8
  store ptr %9, ptr %10, align 8
  store i32 %.val15, ptr %5, align 4
  %.not.i = icmp eq ptr %9, null
  br i1 %.not.i, label %Vec_IntStart.exit, label %11

11:                                               ; preds = %Vec_IntAlloc.exit.i
  %12 = sext i32 %.val15 to i64
  %13 = shl nsw i64 %12, 2
  tail call void @llvm.memset.p0.i64(ptr nonnull align 4 %9, i8 0, i64 %13, i1 false)
  br label %Vec_IntStart.exit

Vec_IntStart.exit:                                ; preds = %Vec_IntAlloc.exit.thread.i, %Vec_IntAlloc.exit.i, %11
  %.val16 = phi ptr [ null, %Vec_IntAlloc.exit.thread.i ], [ null, %Vec_IntAlloc.exit.i ], [ %9, %11 ]
  %14 = getelementptr inbounds nuw i8, ptr %0, i64 80
  %15 = load ptr, ptr %14, align 8
  %16 = getelementptr i8, ptr %15, i64 4
  %.val18 = load i32, ptr %16, align 4
  %17 = icmp sgt i32 %.val18, 0
  br i1 %17, label %.lr.ph, label %.critedge

.lr.ph:                                           ; preds = %Vec_IntStart.exit, %28
  %18 = phi ptr [ %29, %28 ], [ %15, %Vec_IntStart.exit ]
  %indvars.iv = phi i64 [ %indvars.iv.next, %28 ], [ 0, %Vec_IntStart.exit ]
  %19 = getelementptr i8, ptr %18, i64 8
  %.val12.val = load ptr, ptr %19, align 8
  %20 = getelementptr inbounds nuw ptr, ptr %.val12.val, i64 %indvars.iv
  %21 = load ptr, ptr %20, align 8
  %22 = getelementptr i8, ptr %21, i64 20
  %.val13 = load i32, ptr %22, align 4
  %23 = and i32 %.val13, 15
  %.not = icmp eq i32 %23, 8
  br i1 %.not, label %24, label %28

24:                                               ; preds = %.lr.ph
  %25 = getelementptr i8, ptr %21, i64 56
  %.val14 = load ptr, ptr %25, align 8
  %.not17 = icmp eq ptr %.val14, inttoptr (i64 3 to ptr)
  br i1 %.not17, label %26, label %28

26:                                               ; preds = %24
  %27 = getelementptr inbounds nuw i32, ptr %.val16, i64 %indvars.iv
  store i32 1, ptr %27, align 4
  store ptr inttoptr (i64 1 to ptr), ptr %25, align 8
  %.pre = load ptr, ptr %14, align 8
  br label %28

28:                                               ; preds = %.lr.ph, %26, %24
  %29 = phi ptr [ %18, %.lr.ph ], [ %.pre, %26 ], [ %18, %24 ]
  %indvars.iv.next = add nuw nsw i64 %indvars.iv, 1
  %30 = getelementptr i8, ptr %29, i64 4
  %.val = load i32, ptr %30, align 4
  %31 = sext i32 %.val to i64
  %32 = icmp slt i64 %indvars.iv.next, %31
  br i1 %32, label %.lr.ph, label %.critedge, !llvm.loop !14

.critedge:                                        ; preds = %28, %Vec_IntStart.exit
  ret ptr %3
}